target datalayout = "e-m:e-p270:32:32-p271:32:32-p272:64:64-i64:64-i128:128-f80:128-n8:16:32:64-S128"
target triple = "x86_64-pc-linux-gnu"

%struct.AVChannelLayout = type { i32, i32, %union.anon.1, ptr }
%union.anon.1 = type { i64 }
%struct.AVRational = type { i32, i32 }
%struct.AVFrame = type { [8 x ptr], [8 x i32], ptr, i32, i32, i32, i32, i32, %struct.AVRational, i64, i64, %struct.AVRational, i32, ptr, i32, i32, [8 x ptr], ptr, i32, ptr, i32, i32, i32, i32, i32, i32, i32, i64, ptr, i32, ptr, ptr, i64, i64, i64, i64, ptr, %struct.AVChannelLayout, i64 }

; Function Attrs: nounwind uwtable
define internal i32 @is_same3(ptr noundef %0, i32 noundef %1, i32 noundef %2, i32 noundef %3, i32 noundef %4, i32 noundef %5, i32 noundef %6) #1 {
  %8 = alloca i32, align 4
  %9 = alloca ptr, align 8
  %10 = alloca i32, align 4
  %11 = alloca i32, align 4
  %12 = alloca i32, align 4
  %13 = alloca i32, align 4
  %14 = alloca i32, align 4
  %15 = alloca i32, align 4
  %16 = alloca i32, align 4
  %17 = alloca i32, align 4
  %18 = alloca i32, align 4
  %19 = alloca i32, align 4
  store ptr %0, ptr %9, align 8, !tbaa !26
  store i32 %1, ptr %10, align 4, !tbaa !36
  store i32 %2, ptr %11, align 4, !tbaa !36
  store i32 %3, ptr %12, align 4, !tbaa !36
  store i32 %4, ptr %13, align 4, !tbaa !36
  store i32 %5, ptr %14, align 4, !tbaa !36
  store i32 %6, ptr %15, align 4, !tbaa !36
  call void @llvm.lifetime.start.p0(i64 4, ptr %16) #4
  %20 = load ptr, ptr %9, align 8, !tbaa !26
  %21 = getelementptr inbounds nuw %struct.AVFrame, ptr %20, i32 0, i32 0
  %22 = getelementptr inbounds [8 x ptr], ptr %21, i64 0, i64 0
  %23 = load ptr, ptr %22, align 8, !tbaa !70
  %24 = load i32, ptr %11, align 4, !tbaa !36
  %25 = load ptr, ptr %9, align 8, !tbaa !26
  %26 = getelementptr inbounds nuw %struct.AVFrame, ptr %25, i32 0, i32 1
  %27 = getelementptr inbounds [8 x i32], ptr %26, i64 0, i64 0
  %28 = load i32, ptr %27, align 8, !tbaa !36
  %29 = mul nsw i32 %24, %28
  %30 = load i32, ptr %10, align 4, !tbaa !36
  %31 = add nsw i32 %29, %30
  %32 = sext i32 %31 to i64
  %33 = getelementptr inbounds i8, ptr %23, i64 %32
  %34 = load i8, ptr %33, align 1, !tbaa !71
  %35 = zext i8 %34 to i32
  store i32 %35, ptr %16, align 4, !tbaa !36
  call void @llvm.lifetime.start.p0(i64 4, ptr %17) #4
  %36 = load ptr, ptr %9, align 8, !tbaa !26
  %37 = getelementptr inbounds nuw %struct.AVFrame, ptr %36, i32 0, i32 0
  %38 = getelementptr inbounds [8 x ptr], ptr %37, i64 0, i64 1
  %39 = load ptr, ptr %38, align 8, !tbaa !70
  %40 = load i32, ptr %11, align 4, !tbaa !36
  %41 = load ptr, ptr %9, align 8, !tbaa !26
  %42 = getelementptr inbounds nuw %struct.AVFrame, ptr %41, i32 0, i32 1
  %43 = getelementptr inbounds [8 x i32], ptr %42, i64 0, i64 1
  %44 = load i32, ptr %43, align 4, !tbaa !36
  %45 = mul nsw i32 %40, %44
  %46 = load i32, ptr %10, align 4, !tbaa !36
  %47 = add nsw i32 %45, %46
  %48 = sext i32 %47 to i64
  %49 = getelementptr inbounds i8, ptr %39, i64 %48
  %50 = load i8, ptr %49, align 1, !tbaa !71
  %51 = zext i8 %50 to i32
  store i32 %51, ptr %17, align 4, !tbaa !36
  call void @llvm.lifetime.start.p0(i64 4, ptr %18) #4
  %52 = load ptr, ptr %9, align 8, !tbaa !26
  %53 = getelementptr inbounds nuw %struct.AVFrame, ptr %52, i32 0, i32 0
  %54 = getelementptr inbounds [8 x ptr], ptr %53, i64 0, i64 2
  %55 = load ptr, ptr %54, align 8, !tbaa !70
  %56 = load i32, ptr %11, align 4, !tbaa !36
  %57 = load ptr, ptr %9, align 8, !tbaa !26
  %58 = getelementptr inbounds nuw %struct.AVFrame, ptr %57, i32 0, i32 1
  %59 = getelementptr inbounds [8 x i32], ptr %58, i64 0, i64 2
  %60 = load i32, ptr %59, align 8, !tbaa !36
  %61 = mul nsw i32 %56, %60
  %62 = load i32, ptr %10, align 4, !tbaa !36
  %63 = add nsw i32 %61, %62
  %64 = sext i32 %63 to i64
  %65 = getelementptr inbounds i8, ptr %55, i64 %64
  %66 = load i8, ptr %65, align 1, !tbaa !71
  %67 = zext i8 %66 to i32
  store i32 %67, ptr %18, align 4, !tbaa !36
  %68 = load i32, ptr %12, align 4, !tbaa !36
  %69 = load i32, ptr %16, align 4, !tbaa !36
  %70 = icmp eq i32 %68, %69
  br i1 %70, label %71, label %80

71:                                               ; preds = %7
  %72 = load i32, ptr %13, align 4, !tbaa !36
  %73 = load i32, ptr %17, align 4, !tbaa !36
  %74 = icmp eq i32 %72, %73
  br i1 %74, label %75, label %80

75:                                               ; preds = %71
  %76 = load i32, ptr %14, align 4, !tbaa !36
  %77 = load i32, ptr %18, align 4, !tbaa !36
  %78 = icmp eq i32 %76, %77
  br i1 %78, label %79, label %80

79:                                               ; preds = %75
  store i32 1, ptr %8, align 4
  store i32 1, ptr %19, align 4
  br label %81

80:                                               ; preds = %75, %71, %7
  store i32 0, ptr %8, align 4
  store i32 1, ptr %19, align 4
  br label %81

81:                                               ; preds = %80, %79
  call void @llvm.lifetime.end.p0(i64 4, ptr %18) #4
  call void @llvm.lifetime.end.p0(i64 4, ptr %17) #4
  call void @llvm.lifetime.end.p0(i64 4, ptr %16) #4
  %82 = load i32, ptr %8, align 4
  ret i32 %82
}