; Function Attrs: mustprogress nofree norecurse nosync nounwind willreturn memory(read, inaccessiblemem: none) uwtable
define internal range(i32 0, 2) i32 @is_same3(ptr noundef readonly captures(none) %0, i32 noundef %1, i32 noundef %2, i32 noundef %3, i32 noundef %4, i32 noundef %5, i32 %6) #5 {
  %8 = load ptr, ptr %0, align 8, !tbaa !65
  %9 = getelementptr inbounds nuw i8, ptr %0, i64 64
  %10 = load i32, ptr %9, align 8, !tbaa !31
  %11 = mul nsw i32 %10, %2
  %12 = add nsw i32 %11, %1
  %13 = sext i32 %12 to i64
  %14 = getelementptr inbounds i8, ptr %8, i64 %13
  %15 = load i8, ptr %14, align 1, !tbaa !66
  %16 = zext i8 %15 to i32
  %17 = icmp eq i32 %3, %16
  br i1 %17, label %18, label %41

18:                                               ; preds = %7
  %19 = getelementptr inbounds nuw i8, ptr %0, i64 16
  %20 = load ptr, ptr %19, align 8, !tbaa !65
  %21 = getelementptr inbounds nuw i8, ptr %0, i64 72
  %22 = load i32, ptr %21, align 8, !tbaa !31
  %23 = mul nsw i32 %22, %2
  %24 = add nsw i32 %23, %1
  %25 = sext i32 %24 to i64
  %26 = getelementptr inbounds i8, ptr %20, i64 %25
  %27 = load i8, ptr %26, align 1, !tbaa !66
  %28 = zext i8 %27 to i32
  %29 = getelementptr inbounds nuw i8, ptr %0, i64 8
  %30 = load ptr, ptr %29, align 8, !tbaa !65
  %31 = getelementptr inbounds nuw i8, ptr %0, i64 68
  %32 = load i32, ptr %31, align 4, !tbaa !31
  %33 = mul nsw i32 %32, %2
  %34 = add nsw i32 %33, %1
  %35 = sext i32 %34 to i64
  %36 = getelementptr inbounds i8, ptr %30, i64 %35
  %37 = load i8, ptr %36, align 1, !tbaa !66
  %38 = zext i8 %37 to i32
  %39 = icmp eq i32 %4, %38
  %40 = icmp eq i32 %5, %28
  %or.cond = select i1 %39, i1 %40, i1 false
  br i1 %or.cond, label %42, label %41

41:                                               ; preds = %18, %7
  br label %42

42:                                               ; preds = %18, %41
  %.0 = phi i32 [ 0, %41 ], [ 1, %18 ]
  ret i32 %.0
}